; Function Attrs: nounwind sspstrong uwtable
define internal void @wmap_mark(ptr noundef readonly captures(none) %0) #0 {
  %2 = alloca %struct.wmap_foreach_data, align 8
  %3 = load ptr, ptr %0, align 8, !tbaa !17
  %.not = icmp eq ptr %3, null
  br i1 %.not, label %10, label %4

4:                                                ; preds = %1
  call void @llvm.lifetime.start.p0(i64 24, ptr nonnull %2) #10
  store ptr @wmap_mark_weak_table_i, ptr %2, align 8, !tbaa !20
  %5 = getelementptr inbounds nuw i8, ptr %2, i64 8
  %6 = getelementptr inbounds nuw i8, ptr %2, i64 16
  %7 = ptrtoint ptr %2 to i64
  call void @llvm.memset.p0.i64(ptr noundef nonnull align 8 dereferenceable(16) %5, i8 0, i64 16, i1 false)
  %8 = call i32 @rb_st_foreach(ptr noundef nonnull %3, ptr noundef nonnull @wmap_foreach_i, i64 noundef %7) #10
  %9 = load ptr, ptr %6, align 8, !tbaa !24
  call void @ruby_xfree(ptr noundef %9) #10
  call void @llvm.lifetime.end.p0(i64 24, ptr nonnull %2) #10
  br label %10

10:                                               ; preds = %4, %1
  ret void
}